target datalayout = "e-m:e-p270:32:32-p271:32:32-p272:64:64-i64:64-i128:128-f80:128-n8:16:32:64-S128"
target triple = "x86_64-pc-linux-gnu"

%"class.ncnn::Mat" = type { ptr, ptr, i64, i32, ptr, i32, i32, i32, i32, i32, i64 }
%struct.__ncnn_modelbin_t = type { ptr, ptr, ptr, ptr }

; Function Attrs: mustprogress uwtable
define internal noundef ptr @_ZL37__ncnn_ModelBinFromDataReader_load_3dP17__ncnn_modelbin_tiiii(ptr noundef %0, i32 noundef %1, i32 noundef %2, i32 noundef %3, i32 noundef %4) #1 personality ptr @__gxx_personality_v0 {
  %6 = alloca ptr, align 8
  %7 = alloca i32, align 4
  %8 = alloca i32, align 4
  %9 = alloca i32, align 4
  %10 = alloca i32, align 4
  %11 = alloca ptr, align 8
  %12 = alloca i32, align 4
  store ptr %0, ptr %6, align 8
  store i32 %1, ptr %7, align 4
  store i32 %2, ptr %8, align 4
  store i32 %3, ptr %9, align 4
  store i32 %4, ptr %10, align 4
  %13 = call noalias noundef nonnull ptr @_Znwm(i64 noundef 72) #13
  %14 = load ptr, ptr %6, align 8
  %15 = getelementptr inbounds nuw %struct.__ncnn_modelbin_t, ptr %14, i32 0, i32 0
  %16 = load ptr, ptr %15, align 8
  %17 = load i32, ptr %7, align 4
  %18 = load i32, ptr %8, align 4
  %19 = load i32, ptr %9, align 4
  %20 = load i32, ptr %10, align 4
  invoke void @_ZNK4ncnn8ModelBin4loadEiiii(ptr dead_on_unwind writable sret(%"class.ncnn::Mat") align 8 %13, ptr noundef nonnull align 8 dereferenceable(8) %16, i32 noundef %17, i32 noundef %18, i32 noundef %19, i32 noundef %20)
          to label %21 unwind label %22

21:                                               ; preds = %5
  ret ptr %13

22:                                               ; preds = %5
  %23 = landingpad { ptr, i32 }
          cleanup
  %24 = extractvalue { ptr, i32 } %23, 0
  store ptr %24, ptr %11, align 8
  %25 = extractvalue { ptr, i32 } %23, 1
  store i32 %25, ptr %12, align 4
  call void @_ZdlPvm(ptr noundef %13, i64 noundef 72) #14
  br label %26

26:                                               ; preds = %22
  %27 = load ptr, ptr %11, align 8
  %28 = load i32, ptr %12, align 4
  %29 = insertvalue { ptr, i32 } poison, ptr %27, 0
  %30 = insertvalue { ptr, i32 } %29, i32 %28, 1
  resume { ptr, i32 } %30
}