; Function Attrs: mustprogress uwtable
define internal noundef nonnull ptr @_ZL37__ncnn_ModelBinFromDataReader_load_3dP17__ncnn_modelbin_tiiii(ptr nocapture noundef readonly %0, i32 noundef %1, i32 noundef %2, i32 noundef %3, i32 noundef %4) #1 personality ptr @__gxx_personality_v0 {
  %6 = tail call noalias noundef nonnull dereferenceable(72) ptr @_Znwm(i64 noundef 72) #24
  %7 = load ptr, ptr %0, align 8
  invoke void @_ZNK4ncnn8ModelBin4loadEiiii(ptr dead_on_unwind nonnull writable sret(%"class.ncnn::Mat") align 8 %6, ptr noundef nonnull align 8 dereferenceable(8) %7, i32 noundef %1, i32 noundef %2, i32 noundef %3, i32 noundef %4)
          to label %8 unwind label %9

8:                                                ; preds = %5
  ret ptr %6

9:                                                ; preds = %5
  %10 = landingpad { ptr, i32 }
          cleanup
  tail call void @_ZdlPvm(ptr noundef nonnull %6, i64 noundef 72) #25
  resume { ptr, i32 } %10
}